#include <math.h>
#include <stdio.h>
#include <stdlib.h>
#include <string.h>

int main()
{
	int a[500]={0},n,l,i,j,max=0;
	char s[501];
	scanf("%d\n",&n);
	gets(s);
	char b[501][5]={0};
	l=strlen(s);
	for(i=0;i<=l-n;i++)
	{
		for(j=0;j<n;j++)
		{
		b[i][j]=s[i+j];
	    }
	}
	for(i=0;i<=l-n;i++)
	{
		for(j=i+1;j<=l-n;j++)
		{
			if(strcmp(b[i],b[j])==0) a[i]++;
		}
		if(a[i]>max) max=a[i];
	}
	if(max==0) printf("NO"); 
	else 
	{
		 printf("%d\n",max+1);
	     for(i=0;i<=l-n;i++)
	     if(a[i]==max)  printf("%s\n",b[i]);
	}
} 