; ModuleID = '51/767.c'
source_filename = "51/767.c"
target datalayout = "e-m:e-p270:32:32-p271:32:32-p272:64:64-i64:64-f80:128-n8:16:32:64-S128"
target triple = "x86_64-pc-linux-gnu"

@.str = private unnamed_addr constant [4 x i8] c"%d\0A\00", align 1
@.str.1 = private unnamed_addr constant [3 x i8] c"NO\00", align 1
@.str.2 = private unnamed_addr constant [4 x i8] c"%s\0A\00", align 1

; Function Attrs: noinline nounwind uwtable
define dso_local i32 @main() #0 {
  %1 = alloca i32, align 4
  %2 = alloca [500 x i32], align 16
  %3 = alloca i32, align 4
  %4 = alloca i32, align 4
  %5 = alloca i32, align 4
  %6 = alloca i32, align 4
  %7 = alloca i32, align 4
  %8 = alloca [501 x i8], align 16
  %9 = alloca [501 x [5 x i8]], align 16
  store i32 0, i32* %1, align 4
  %10 = bitcast [500 x i32]* %2 to i8*
  call void @llvm.memset.p0i8.i64(i8* align 16 %10, i8 0, i64 2000, i1 false)
  store i32 0, i32* %7, align 4
  %11 = call i32 (i8*, ...) @__isoc99_scanf(i8* getelementptr inbounds ([4 x i8], [4 x i8]* @.str, i64 0, i64 0), i32* %3)
  %12 = getelementptr inbounds [501 x i8], [501 x i8]* %8, i64 0, i64 0
  %13 = call i32 (i8*, ...) bitcast (i32 (...)* @gets to i32 (i8*, ...)*)(i8* %12)
  %14 = bitcast [501 x [5 x i8]]* %9 to i8*
  call void @llvm.memset.p0i8.i64(i8* align 16 %14, i8 0, i64 2505, i1 false)
  %15 = getelementptr inbounds [501 x i8], [501 x i8]* %8, i64 0, i64 0
  %16 = call i64 @strlen(i8* %15) #4
  %17 = trunc i64 %16 to i32
  store i32 %17, i32* %4, align 4
  store i32 0, i32* %5, align 4
  br label %18

18:                                               ; preds = %46, %0
  %19 = load i32, i32* %5, align 4
  %20 = load i32, i32* %4, align 4
  %21 = load i32, i32* %3, align 4
  %22 = sub nsw i32 %20, %21
  %23 = icmp sle i32 %19, %22
  br i1 %23, label %24, label %49

24:                                               ; preds = %18
  store i32 0, i32* %6, align 4
  br label %25

25:                                               ; preds = %42, %24
  %26 = load i32, i32* %6, align 4
  %27 = load i32, i32* %3, align 4
  %28 = icmp slt i32 %26, %27
  br i1 %28, label %29, label %45

29:                                               ; preds = %25
  %30 = load i32, i32* %5, align 4
  %31 = load i32, i32* %6, align 4
  %32 = add nsw i32 %30, %31
  %33 = sext i32 %32 to i64
  %34 = getelementptr inbounds [501 x i8], [501 x i8]* %8, i64 0, i64 %33
  %35 = load i8, i8* %34, align 1
  %36 = load i32, i32* %5, align 4
  %37 = sext i32 %36 to i64
  %38 = getelementptr inbounds [501 x [5 x i8]], [501 x [5 x i8]]* %9, i64 0, i64 %37
  %39 = load i32, i32* %6, align 4
  %40 = sext i32 %39 to i64
  %41 = getelementptr inbounds [5 x i8], [5 x i8]* %38, i64 0, i64 %40
  store i8 %35, i8* %41, align 1
  br label %42

42:                                               ; preds = %29
  %43 = load i32, i32* %6, align 4
  %44 = add nsw i32 %43, 1
  store i32 %44, i32* %6, align 4
  br label %25

45:                                               ; preds = %25
  br label %46

46:                                               ; preds = %45
  %47 = load i32, i32* %5, align 4
  %48 = add nsw i32 %47, 1
  store i32 %48, i32* %5, align 4
  br label %18

49:                                               ; preds = %18
  store i32 0, i32* %5, align 4
  br label %50

50:                                               ; preds = %99, %49
  %51 = load i32, i32* %5, align 4
  %52 = load i32, i32* %4, align 4
  %53 = load i32, i32* %3, align 4
  %54 = sub nsw i32 %52, %53
  %55 = icmp sle i32 %51, %54
  br i1 %55, label %56, label %102

56:                                               ; preds = %50
  %57 = load i32, i32* %5, align 4
  %58 = add nsw i32 %57, 1
  store i32 %58, i32* %6, align 4
  br label %59

59:                                               ; preds = %83, %56
  %60 = load i32, i32* %6, align 4
  %61 = load i32, i32* %4, align 4
  %62 = load i32, i32* %3, align 4
  %63 = sub nsw i32 %61, %62
  %64 = icmp sle i32 %60, %63
  br i1 %64, label %65, label %86

65:                                               ; preds = %59
  %66 = load i32, i32* %5, align 4
  %67 = sext i32 %66 to i64
  %68 = getelementptr inbounds [501 x [5 x i8]], [501 x [5 x i8]]* %9, i64 0, i64 %67
  %69 = getelementptr inbounds [5 x i8], [5 x i8]* %68, i64 0, i64 0
  %70 = load i32, i32* %6, align 4
  %71 = sext i32 %70 to i64
  %72 = getelementptr inbounds [501 x [5 x i8]], [501 x [5 x i8]]* %9, i64 0, i64 %71
  %73 = getelementptr inbounds [5 x i8], [5 x i8]* %72, i64 0, i64 0
  %74 = call i32 @strcmp(i8* %69, i8* %73) #4
  %75 = icmp eq i32 %74, 0
  br i1 %75, label %76, label %82

76:                                               ; preds = %65
  %77 = load i32, i32* %5, align 4
  %78 = sext i32 %77 to i64
  %79 = getelementptr inbounds [500 x i32], [500 x i32]* %2, i64 0, i64 %78
  %80 = load i32, i32* %79, align 4
  %81 = add nsw i32 %80, 1
  store i32 %81, i32* %79, align 4
  br label %82

82:                                               ; preds = %76, %65
  br label %83

83:                                               ; preds = %82
  %84 = load i32, i32* %6, align 4
  %85 = add nsw i32 %84, 1
  store i32 %85, i32* %6, align 4
  br label %59

86:                                               ; preds = %59
  %87 = load i32, i32* %5, align 4
  %88 = sext i32 %87 to i64
  %89 = getelementptr inbounds [500 x i32], [500 x i32]* %2, i64 0, i64 %88
  %90 = load i32, i32* %89, align 4
  %91 = load i32, i32* %7, align 4
  %92 = icmp sgt i32 %90, %91
  br i1 %92, label %93, label %98

93:                                               ; preds = %86
  %94 = load i32, i32* %5, align 4
  %95 = sext i32 %94 to i64
  %96 = getelementptr inbounds [500 x i32], [500 x i32]* %2, i64 0, i64 %95
  %97 = load i32, i32* %96, align 4
  store i32 %97, i32* %7, align 4
  br label %98

98:                                               ; preds = %93, %86
  br label %99

99:                                               ; preds = %98
  %100 = load i32, i32* %5, align 4
  %101 = add nsw i32 %100, 1
  store i32 %101, i32* %5, align 4
  br label %50

102:                                              ; preds = %50
  %103 = load i32, i32* %7, align 4
  %104 = icmp eq i32 %103, 0
  br i1 %104, label %105, label %107

105:                                              ; preds = %102
  %106 = call i32 (i8*, ...) @printf(i8* getelementptr inbounds ([3 x i8], [3 x i8]* @.str.1, i64 0, i64 0))
  br label %135

107:                                              ; preds = %102
  %108 = load i32, i32* %7, align 4
  %109 = add nsw i32 %108, 1
  %110 = call i32 (i8*, ...) @printf(i8* getelementptr inbounds ([4 x i8], [4 x i8]* @.str, i64 0, i64 0), i32 %109)
  store i32 0, i32* %5, align 4
  br label %111

111:                                              ; preds = %131, %107
  %112 = load i32, i32* %5, align 4
  %113 = load i32, i32* %4, align 4
  %114 = load i32, i32* %3, align 4
  %115 = sub nsw i32 %113, %114
  %116 = icmp sle i32 %112, %115
  br i1 %116, label %117, label %134

117:                                              ; preds = %111
  %118 = load i32, i32* %5, align 4
  %119 = sext i32 %118 to i64
  %120 = getelementptr inbounds [500 x i32], [500 x i32]* %2, i64 0, i64 %119
  %121 = load i32, i32* %120, align 4
  %122 = load i32, i32* %7, align 4
  %123 = icmp eq i32 %121, %122
  br i1 %123, label %124, label %130

124:                                              ; preds = %117
  %125 = load i32, i32* %5, align 4
  %126 = sext i32 %125 to i64
  %127 = getelementptr inbounds [501 x [5 x i8]], [501 x [5 x i8]]* %9, i64 0, i64 %126
  %128 = getelementptr inbounds [5 x i8], [5 x i8]* %127, i64 0, i64 0
  %129 = call i32 (i8*, ...) @printf(i8* getelementptr inbounds ([4 x i8], [4 x i8]* @.str.2, i64 0, i64 0), i8* %128)
  br label %130

130:                                              ; preds = %124, %117
  br label %131

131:                                              ; preds = %130
  %132 = load i32, i32* %5, align 4
  %133 = add nsw i32 %132, 1
  store i32 %133, i32* %5, align 4
  br label %111

134:                                              ; preds = %111
  br label %135

135:                                              ; preds = %134, %105
  %136 = load i32, i32* %1, align 4
  ret i32 %136
}

; Function Attrs: argmemonly nounwind willreturn
declare void @llvm.memset.p0i8.i64(i8* nocapture writeonly, i8, i64, i1 immarg) #1

declare dso_local i32 @__isoc99_scanf(i8*, ...) #2

declare dso_local i32 @gets(...) #2

; Function Attrs: nounwind readonly
declare dso_local i64 @strlen(i8*) #3

; Function Attrs: nounwind readonly
declare dso_local i32 @strcmp(i8*, i8*) #3

declare dso_local i32 @printf(i8*, ...) #2


!llvm.module.flags = !{!0}
!llvm.ident = !{!1}

!0 = !{i32 1, !"wchar_size", i32 4}
!1 = !{!"clang version 10.0.0-4ubuntu1 "}
